target datalayout = "e-m:e-p270:32:32-p271:32:32-p272:64:64-i64:64-i128:128-f80:128-n8:16:32:64-S128"
target triple = "x86_64-pc-linux-gnu"

%"class.open3d::pipelines::registration::RobustKernel" = type { ptr }
%"class.open3d::pipelines::registration::CauchyLoss" = type { %"class.open3d::pipelines::registration::RobustKernel", double }

; Function Attrs: inlinehint mustprogress nounwind ssp uwtable
define internal noundef double @_ZN12_GLOBAL__N_16squareEd(double noundef %0) #0 {
  %2 = alloca double, align 8
  store double %0, ptr %2, align 8, !tbaa !9
  %3 = load double, ptr %2, align 8, !tbaa !9
  %4 = load double, ptr %2, align 8, !tbaa !9
  %5 = fmul double %3, %4
  ret double %5
}

; Function Attrs: mustprogress ssp uwtable
define noundef double @_ZNK6open3d9pipelines12registration10CauchyLoss6WeightEd(ptr noundef nonnull align 8 dereferenceable(16) %0, double noundef %1) unnamed_addr #1 align 2 {
  %3 = alloca ptr, align 8
  %4 = alloca double, align 8
  store ptr %0, ptr %3, align 8, !tbaa !14
  store double %1, ptr %4, align 8, !tbaa !9
  %5 = load ptr, ptr %3, align 8
  %6 = load double, ptr %4, align 8, !tbaa !9
  %7 = getelementptr inbounds nuw %"class.open3d::pipelines::registration::CauchyLoss", ptr %5, i32 0, i32 1
  %8 = load double, ptr %7, align 8, !tbaa !16
  %9 = fdiv double %6, %8
  %10 = call noundef double @_ZN12_GLOBAL__N_16squareEd(double noundef %9)
  %11 = fadd double 1.000000e+00, %10
  %12 = fdiv double 1.000000e+00, %11
  ret double %12
}