; Function Attrs: mustprogress nofree norecurse nosync nounwind ssp willreturn memory(argmem: read) uwtable
define noundef double @_ZNK6open3d9pipelines12registration10CauchyLoss6WeightEd(ptr noundef nonnull readonly align 8 captures(none) dereferenceable(16) %0, double noundef %1) unnamed_addr #1 align 2 {
  %3 = getelementptr inbounds nuw i8, ptr %0, i64 8
  %4 = load double, ptr %3, align 8, !tbaa !10
  %5 = fdiv double %1, %4
  %6 = fmul double %5, %5
  %7 = fadd double %6, 1.000000e+00
  %8 = fdiv double 1.000000e+00, %7
  ret double %8
}